target datalayout = "e-m:e-p270:32:32-p271:32:32-p272:64:64-i64:64-i128:128-f80:128-n8:16:32:64-S128"
target triple = "x86_64-pc-linux-gnu"

%struct.ParseState = type { ptr, ptr, i32, i32, ptr, ptr, ptr, ptr, ptr, ptr, i8, ptr, ptr, ptr, ptr, ptr, ptr, i8, ptr, i32, i32, ptr, ptr, i8, i8, ptr, i8, i8, i8, i8, i8, ptr, ptr, ptr, ptr, ptr, ptr }
%struct.List = type { i32, i32, i32, ptr, [0 x %union.ListCell] }
%union.ListCell = type { ptr }
%struct.RangeTblEntry = type { i32, ptr, ptr, i32, i32, i8, i8, i32, i32, ptr, ptr, i8, i32, i32, ptr, ptr, ptr, ptr, ptr, i8, ptr, ptr, ptr, i32, i8, ptr, ptr, ptr, ptr, double, ptr, i8, i8, ptr }
%struct.Alias = type { i32, ptr, ptr }
%struct.Node = type { i32 }
%struct.TableFunc = type { i32, i32, ptr, ptr, ptr, ptr, ptr, ptr, ptr, ptr, ptr, ptr, ptr, ptr, ptr, ptr, i32, i32 }

@.str.1 = private unnamed_addr constant [17 x i8] c"parse_relation.c\00", align 1
@.str.23 = private unnamed_addr constant [48 x i8] c"functions in FROM can return at most %d columns\00", align 1
@__func__.addRangeTableEntryForTableFunc = private unnamed_addr constant [31 x i8] c"addRangeTableEntryForTableFunc\00", align 1
@.str.25 = private unnamed_addr constant [9 x i8] c"xmltable\00", align 1
@.str.26 = private unnamed_addr constant [11 x i8] c"json_table\00", align 1
@.str.27 = private unnamed_addr constant [62 x i8] c"%s function has %d columns available but %d columns specified\00", align 1
@.str.28 = private unnamed_addr constant [9 x i8] c"XMLTABLE\00", align 1
@.str.29 = private unnamed_addr constant [11 x i8] c"JSON_TABLE\00", align 1

; Function Attrs: inlinehint nounwind uwtable
define internal i32 @list_length(ptr noundef %0) #6 {
  %2 = alloca ptr, align 8
  store ptr %0, ptr %2, align 8
  %3 = load ptr, ptr %2, align 8
  %4 = icmp ne ptr %3, null
  br i1 %4, label %5, label %9

5:                                                ; preds = %1
  %6 = load ptr, ptr %2, align 8
  %7 = getelementptr inbounds nuw %struct.List, ptr %6, i32 0, i32 1
  %8 = load i32, ptr %7, align 4
  br label %10

9:                                                ; preds = %1
  br label %10

10:                                               ; preds = %9, %5
  %11 = phi i32 [ %8, %5 ], [ 0, %9 ]
  ret i32 %11
}

; Function Attrs: inlinehint nounwind uwtable
define internal ptr @newNode(i64 noundef %0, i32 noundef %1) #6 {
  %3 = alloca i64, align 8
  %4 = alloca i32, align 4
  %5 = alloca ptr, align 8
  store i64 %0, ptr %3, align 8
  store i32 %1, ptr %4, align 4
  call void @llvm.lifetime.start.p0(i64 8, ptr %5) #8
  %6 = load i64, ptr %3, align 8
  %7 = call ptr @palloc0(i64 noundef %6)
  store ptr %7, ptr %5, align 8
  %8 = load i32, ptr %4, align 4
  %9 = load ptr, ptr %5, align 8
  %10 = getelementptr inbounds nuw %struct.Node, ptr %9, i32 0, i32 0
  store i32 %8, ptr %10, align 4
  %11 = load ptr, ptr %5, align 8
  call void @llvm.lifetime.end.p0(i64 8, ptr %5) #8
  ret ptr %11
}

; Function Attrs: nounwind uwtable
define dso_local ptr @addRangeTableEntryForTableFunc(ptr noundef %0, ptr noundef %1, ptr noundef %2, i1 noundef zeroext %3, i1 noundef zeroext %4) #0 {
  %6 = alloca ptr, align 8
  %7 = alloca ptr, align 8
  %8 = alloca ptr, align 8
  %9 = alloca i8, align 1
  %10 = alloca i8, align 1
  %11 = alloca ptr, align 8
  %12 = alloca ptr, align 8
  %13 = alloca ptr, align 8
  %14 = alloca i32, align 4
  store ptr %0, ptr %6, align 8
  store ptr %1, ptr %7, align 8
  store ptr %2, ptr %8, align 8
  %15 = zext i1 %3 to i8
  store i8 %15, ptr %9, align 1
  %16 = zext i1 %4 to i8
  store i8 %16, ptr %10, align 1
  call void @llvm.lifetime.start.p0(i64 8, ptr %11) #8
  %17 = call ptr @newNode(i64 noundef 224, i32 noundef 101)
  store ptr %17, ptr %11, align 8
  call void @llvm.lifetime.start.p0(i64 8, ptr %12) #8
  call void @llvm.lifetime.start.p0(i64 8, ptr %13) #8
  call void @llvm.lifetime.start.p0(i64 4, ptr %14) #8
  %18 = load ptr, ptr %7, align 8
  %19 = getelementptr inbounds nuw %struct.TableFunc, ptr %18, i32 0, i32 6
  %20 = load ptr, ptr %19, align 8
  %21 = call i32 @list_length(ptr noundef %20)
  %22 = icmp sgt i32 %21, 1664
  br i1 %22, label %23, label %39

23:                                               ; preds = %5
  br label %24

24:                                               ; preds = %23
  br i1 true, label %25, label %27

25:                                               ; preds = %24
  %26 = call zeroext i1 @errstart_cold(i32 noundef 21, ptr noundef null) #9
  br i1 %26, label %29, label %36

27:                                               ; preds = %24
  %28 = call zeroext i1 @errstart(i32 noundef 21, ptr noundef null)
  br i1 %28, label %29, label %36

29:                                               ; preds = %27, %25
  %30 = call i32 @errcode(i32 noundef 17039621)
  %31 = call i32 (ptr, ...) @errmsg(ptr noundef @.str.23, i32 noundef 1664)
  %32 = load ptr, ptr %6, align 8
  %33 = load ptr, ptr %7, align 8
  %34 = call i32 @exprLocation(ptr noundef %33)
  %35 = call i32 @parser_errposition(ptr noundef %32, i32 noundef %34)
  call void @errfinish(ptr noundef @.str.1, i32 noundef 2086, ptr noundef @__func__.addRangeTableEntryForTableFunc)
  br label %36

36:                                               ; preds = %29, %27, %25
  unreachable

37:                                               ; No predecessors!
  br label %38

38:                                               ; preds = %37
  br label %39

39:                                               ; preds = %38, %5
  %40 = load ptr, ptr %11, align 8
  %41 = getelementptr inbounds nuw %struct.RangeTblEntry, ptr %40, i32 0, i32 3
  store i32 4, ptr %41, align 8
  %42 = load ptr, ptr %11, align 8
  %43 = getelementptr inbounds nuw %struct.RangeTblEntry, ptr %42, i32 0, i32 4
  store i32 0, ptr %43, align 4
  %44 = load ptr, ptr %11, align 8
  %45 = getelementptr inbounds nuw %struct.RangeTblEntry, ptr %44, i32 0, i32 10
  store ptr null, ptr %45, align 8
  %46 = load ptr, ptr %7, align 8
  %47 = load ptr, ptr %11, align 8
  %48 = getelementptr inbounds nuw %struct.RangeTblEntry, ptr %47, i32 0, i32 20
  store ptr %46, ptr %48, align 8
  %49 = load ptr, ptr %7, align 8
  %50 = getelementptr inbounds nuw %struct.TableFunc, ptr %49, i32 0, i32 7
  %51 = load ptr, ptr %50, align 8
  %52 = load ptr, ptr %11, align 8
  %53 = getelementptr inbounds nuw %struct.RangeTblEntry, ptr %52, i32 0, i32 25
  store ptr %51, ptr %53, align 8
  %54 = load ptr, ptr %7, align 8
  %55 = getelementptr inbounds nuw %struct.TableFunc, ptr %54, i32 0, i32 8
  %56 = load ptr, ptr %55, align 8
  %57 = load ptr, ptr %11, align 8
  %58 = getelementptr inbounds nuw %struct.RangeTblEntry, ptr %57, i32 0, i32 26
  store ptr %56, ptr %58, align 8
  %59 = load ptr, ptr %7, align 8
  %60 = getelementptr inbounds nuw %struct.TableFunc, ptr %59, i32 0, i32 9
  %61 = load ptr, ptr %60, align 8
  %62 = load ptr, ptr %11, align 8
  %63 = getelementptr inbounds nuw %struct.RangeTblEntry, ptr %62, i32 0, i32 27
  store ptr %61, ptr %63, align 8
  %64 = load ptr, ptr %8, align 8
  %65 = load ptr, ptr %11, align 8
  %66 = getelementptr inbounds nuw %struct.RangeTblEntry, ptr %65, i32 0, i32 1
  store ptr %64, ptr %66, align 8
  %67 = load ptr, ptr %8, align 8
  %68 = icmp ne ptr %67, null
  br i1 %68, label %69, label %73

69:                                               ; preds = %39
  %70 = load ptr, ptr %8, align 8
  %71 = getelementptr inbounds nuw %struct.Alias, ptr %70, i32 0, i32 1
  %72 = load ptr, ptr %71, align 8
  br label %80

73:                                               ; preds = %39
  %74 = load ptr, ptr %7, align 8
  %75 = getelementptr inbounds nuw %struct.TableFunc, ptr %74, i32 0, i32 1
  %76 = load i32, ptr %75, align 4
  %77 = icmp eq i32 %76, 0
  %78 = select i1 %77, ptr @.str.25, ptr @.str.26
  %79 = call ptr @pstrdup(ptr noundef %78)
  br label %80

80:                                               ; preds = %73, %69
  %81 = phi ptr [ %72, %69 ], [ %79, %73 ]
  store ptr %81, ptr %12, align 8
  %82 = load ptr, ptr %8, align 8
  %83 = icmp ne ptr %82, null
  br i1 %83, label %84, label %87

84:                                               ; preds = %80
  %85 = load ptr, ptr %8, align 8
  %86 = call ptr @copyObjectImpl(ptr noundef %85)
  br label %90

87:                                               ; preds = %80
  %88 = load ptr, ptr %12, align 8
  %89 = call ptr @makeAlias(ptr noundef %88, ptr noundef null)
  br label %90

90:                                               ; preds = %87, %84
  %91 = phi ptr [ %86, %84 ], [ %89, %87 ]
  store ptr %91, ptr %13, align 8
  %92 = load ptr, ptr %13, align 8
  %93 = getelementptr inbounds nuw %struct.Alias, ptr %92, i32 0, i32 2
  %94 = load ptr, ptr %93, align 8
  %95 = call i32 @list_length(ptr noundef %94)
  store i32 %95, ptr %14, align 4
  %96 = load i32, ptr %14, align 4
  %97 = load ptr, ptr %7, align 8
  %98 = getelementptr inbounds nuw %struct.TableFunc, ptr %97, i32 0, i32 6
  %99 = load ptr, ptr %98, align 8
  %100 = call i32 @list_length(ptr noundef %99)
  %101 = icmp slt i32 %96, %100
  br i1 %101, label %102, label %114

102:                                              ; preds = %90
  %103 = load ptr, ptr %13, align 8
  %104 = getelementptr inbounds nuw %struct.Alias, ptr %103, i32 0, i32 2
  %105 = load ptr, ptr %104, align 8
  %106 = load ptr, ptr %7, align 8
  %107 = getelementptr inbounds nuw %struct.TableFunc, ptr %106, i32 0, i32 6
  %108 = load ptr, ptr %107, align 8
  %109 = load i32, ptr %14, align 4
  %110 = call ptr @list_copy_tail(ptr noundef %108, i32 noundef %109)
  %111 = call ptr @list_concat(ptr noundef %105, ptr noundef %110)
  %112 = load ptr, ptr %13, align 8
  %113 = getelementptr inbounds nuw %struct.Alias, ptr %112, i32 0, i32 2
  store ptr %111, ptr %113, align 8
  br label %114

114:                                              ; preds = %102, %90
  %115 = load i32, ptr %14, align 4
  %116 = load ptr, ptr %7, align 8
  %117 = getelementptr inbounds nuw %struct.TableFunc, ptr %116, i32 0, i32 6
  %118 = load ptr, ptr %117, align 8
  %119 = call i32 @list_length(ptr noundef %118)
  %120 = icmp sgt i32 %115, %119
  br i1 %120, label %121, label %143

121:                                              ; preds = %114
  br label %122

122:                                              ; preds = %121
  br i1 true, label %123, label %125

123:                                              ; preds = %122
  %124 = call zeroext i1 @errstart_cold(i32 noundef 21, ptr noundef null) #9
  br i1 %124, label %127, label %140

125:                                              ; preds = %122
  %126 = call zeroext i1 @errstart(i32 noundef 21, ptr noundef null)
  br i1 %126, label %127, label %140

127:                                              ; preds = %125, %123
  %128 = call i32 @errcode(i32 noundef 393348)
  %129 = load ptr, ptr %7, align 8
  %130 = getelementptr inbounds nuw %struct.TableFunc, ptr %129, i32 0, i32 1
  %131 = load i32, ptr %130, align 4
  %132 = icmp eq i32 %131, 0
  %133 = select i1 %132, ptr @.str.28, ptr @.str.29
  %134 = load ptr, ptr %7, align 8
  %135 = getelementptr inbounds nuw %struct.TableFunc, ptr %134, i32 0, i32 6
  %136 = load ptr, ptr %135, align 8
  %137 = call i32 @list_length(ptr noundef %136)
  %138 = load i32, ptr %14, align 4
  %139 = call i32 (ptr, ...) @errmsg(ptr noundef @.str.27, ptr noundef %133, i32 noundef %137, i32 noundef %138)
  call void @errfinish(ptr noundef @.str.1, i32 noundef 2115, ptr noundef @__func__.addRangeTableEntryForTableFunc)
  br label %140

140:                                              ; preds = %127, %125, %123
  unreachable

141:                                              ; No predecessors!
  br label %142

142:                                              ; preds = %141
  br label %143

143:                                              ; preds = %142, %114
  %144 = load ptr, ptr %13, align 8
  %145 = load ptr, ptr %11, align 8
  %146 = getelementptr inbounds nuw %struct.RangeTblEntry, ptr %145, i32 0, i32 2
  store ptr %144, ptr %146, align 8
  %147 = load i8, ptr %9, align 1, !range !6, !noundef !7
  %148 = trunc i8 %147 to i1
  %149 = load ptr, ptr %11, align 8
  %150 = getelementptr inbounds nuw %struct.RangeTblEntry, ptr %149, i32 0, i32 31
  %151 = zext i1 %148 to i8
  store i8 %151, ptr %150, align 8
  %152 = load i8, ptr %10, align 1, !range !6, !noundef !7
  %153 = trunc i8 %152 to i1
  %154 = load ptr, ptr %11, align 8
  %155 = getelementptr inbounds nuw %struct.RangeTblEntry, ptr %154, i32 0, i32 32
  %156 = zext i1 %153 to i8
  store i8 %156, ptr %155, align 1
  %157 = load ptr, ptr %6, align 8
  %158 = getelementptr inbounds nuw %struct.ParseState, ptr %157, i32 0, i32 4
  %159 = load ptr, ptr %158, align 8
  %160 = load ptr, ptr %11, align 8
  %161 = call ptr @lappend(ptr noundef %159, ptr noundef %160)
  %162 = load ptr, ptr %6, align 8
  %163 = getelementptr inbounds nuw %struct.ParseState, ptr %162, i32 0, i32 4
  store ptr %161, ptr %163, align 8
  %164 = load ptr, ptr %11, align 8
  %165 = load ptr, ptr %6, align 8
  %166 = getelementptr inbounds nuw %struct.ParseState, ptr %165, i32 0, i32 4
  %167 = load ptr, ptr %166, align 8
  %168 = call i32 @list_length(ptr noundef %167)
  %169 = load ptr, ptr %11, align 8
  %170 = getelementptr inbounds nuw %struct.RangeTblEntry, ptr %169, i32 0, i32 25
  %171 = load ptr, ptr %170, align 8
  %172 = load ptr, ptr %11, align 8
  %173 = getelementptr inbounds nuw %struct.RangeTblEntry, ptr %172, i32 0, i32 26
  %174 = load ptr, ptr %173, align 8
  %175 = load ptr, ptr %11, align 8
  %176 = getelementptr inbounds nuw %struct.RangeTblEntry, ptr %175, i32 0, i32 27
  %177 = load ptr, ptr %176, align 8
  %178 = call ptr @buildNSItemFromLists(ptr noundef %164, i32 noundef %168, ptr noundef %171, ptr noundef %174, ptr noundef %177)
  call void @llvm.lifetime.end.p0(i64 4, ptr %14) #8
  call void @llvm.lifetime.end.p0(i64 8, ptr %13) #8
  call void @llvm.lifetime.end.p0(i64 8, ptr %12) #8
  call void @llvm.lifetime.end.p0(i64 8, ptr %11) #8
  ret ptr %178
}