; Function Attrs: nounwind uwtable
define dso_local noundef ptr @addRangeTableEntryForTableFunc(ptr noundef %0, ptr noundef %1, ptr noundef %2, i1 noundef zeroext %3, i1 noundef zeroext %4) local_unnamed_addr #0 {
  %6 = tail call noundef ptr @palloc0(i64 noundef 224) #11
  store i32 101, ptr %6, align 4
  %7 = getelementptr inbounds nuw i8, ptr %1, i64 40
  %8 = load ptr, ptr %7, align 8
  %.not.i = icmp eq ptr %8, null
  br i1 %.not.i, label %list_length.exit.thread, label %list_length.exit

list_length.exit:                                 ; preds = %5
  %9 = getelementptr inbounds nuw i8, ptr %8, i64 4
  %10 = load i32, ptr %9, align 4
  %11 = icmp sgt i32 %10, 1664
  br i1 %11, label %12, label %list_length.exit.thread

12:                                               ; preds = %list_length.exit
  %13 = tail call zeroext i1 @errstart_cold(i32 noundef 21, ptr noundef null) #13
  tail call void @llvm.assume(i1 %13)
  %14 = tail call i32 @errcode(i32 noundef 17039621) #11
  %15 = tail call i32 (ptr, ...) @errmsg(ptr noundef nonnull @.str.23, i32 noundef 1664) #11
  %16 = tail call i32 @exprLocation(ptr noundef nonnull %1) #11
  %17 = tail call i32 @parser_errposition(ptr noundef %0, i32 noundef %16) #11
  tail call void @errfinish(ptr noundef nonnull @.str.1, i32 noundef 2086, ptr noundef nonnull @__func__.addRangeTableEntryForTableFunc) #11
  unreachable

list_length.exit.thread:                          ; preds = %5, %list_length.exit
  %18 = getelementptr inbounds nuw i8, ptr %6, i64 24
  store i32 4, ptr %18, align 8
  %19 = getelementptr inbounds nuw i8, ptr %6, i64 28
  store i32 0, ptr %19, align 4
  %20 = getelementptr inbounds nuw i8, ptr %6, i64 56
  store ptr null, ptr %20, align 8
  %21 = getelementptr inbounds nuw i8, ptr %6, i64 128
  store ptr %1, ptr %21, align 8
  %22 = getelementptr inbounds nuw i8, ptr %1, i64 48
  %23 = load ptr, ptr %22, align 8
  %24 = getelementptr inbounds nuw i8, ptr %6, i64 160
  store ptr %23, ptr %24, align 8
  %25 = getelementptr inbounds nuw i8, ptr %1, i64 56
  %26 = load ptr, ptr %25, align 8
  %27 = getelementptr inbounds nuw i8, ptr %6, i64 168
  store ptr %26, ptr %27, align 8
  %28 = getelementptr inbounds nuw i8, ptr %1, i64 64
  %29 = load ptr, ptr %28, align 8
  %30 = getelementptr inbounds nuw i8, ptr %6, i64 176
  store ptr %29, ptr %30, align 8
  %31 = getelementptr inbounds nuw i8, ptr %6, i64 8
  store ptr %2, ptr %31, align 8
  %.not = icmp eq ptr %2, null
  br i1 %.not, label %34, label %32

32:                                               ; preds = %list_length.exit.thread
  %33 = tail call ptr @copyObjectImpl(ptr noundef nonnull %2) #11
  br label %41

34:                                               ; preds = %list_length.exit.thread
  %35 = getelementptr inbounds nuw i8, ptr %1, i64 4
  %36 = load i32, ptr %35, align 4
  %37 = icmp eq i32 %36, 0
  %38 = select i1 %37, ptr @.str.25, ptr @.str.26
  %39 = tail call ptr @pstrdup(ptr noundef nonnull %38) #11
  %40 = tail call ptr @makeAlias(ptr noundef %39, ptr noundef null) #11
  br label %41

41:                                               ; preds = %34, %32
  %42 = phi ptr [ %33, %32 ], [ %40, %34 ]
  %43 = getelementptr inbounds nuw i8, ptr %42, i64 16
  %44 = load ptr, ptr %43, align 8
  %.not.i49 = icmp eq ptr %44, null
  br i1 %.not.i49, label %list_length.exit50, label %45

45:                                               ; preds = %41
  %46 = getelementptr inbounds nuw i8, ptr %44, i64 4
  %47 = load i32, ptr %46, align 4
  br label %list_length.exit50

list_length.exit50:                               ; preds = %41, %45
  %48 = phi i32 [ %47, %45 ], [ 0, %41 ]
  %49 = load ptr, ptr %7, align 8
  %.not.i51 = icmp eq ptr %49, null
  br i1 %.not.i51, label %list_length.exit52, label %50

50:                                               ; preds = %list_length.exit50
  %51 = getelementptr inbounds nuw i8, ptr %49, i64 4
  %52 = load i32, ptr %51, align 4
  br label %list_length.exit52

list_length.exit52:                               ; preds = %list_length.exit50, %50
  %53 = phi i32 [ %52, %50 ], [ 0, %list_length.exit50 ]
  %54 = icmp slt i32 %48, %53
  br i1 %54, label %55, label %58

55:                                               ; preds = %list_length.exit52
  %56 = tail call ptr @list_copy_tail(ptr noundef %49, i32 noundef %48) #11
  %57 = tail call ptr @list_concat(ptr noundef %44, ptr noundef %56) #11
  store ptr %57, ptr %43, align 8
  %.pre = load ptr, ptr %7, align 8
  br label %58

58:                                               ; preds = %55, %list_length.exit52
  %59 = phi ptr [ %.pre, %55 ], [ %49, %list_length.exit52 ]
  %.not.i53 = icmp eq ptr %59, null
  br i1 %.not.i53, label %list_length.exit54, label %60

60:                                               ; preds = %58
  %61 = getelementptr inbounds nuw i8, ptr %59, i64 4
  %62 = load i32, ptr %61, align 4
  br label %list_length.exit54

list_length.exit54:                               ; preds = %58, %60
  %63 = phi i32 [ %62, %60 ], [ 0, %58 ]
  %64 = icmp sgt i32 %48, %63
  br i1 %64, label %65, label %78

65:                                               ; preds = %list_length.exit54
  %66 = tail call zeroext i1 @errstart_cold(i32 noundef 21, ptr noundef null) #13
  tail call void @llvm.assume(i1 %66)
  %67 = tail call i32 @errcode(i32 noundef 393348) #11
  %68 = getelementptr inbounds nuw i8, ptr %1, i64 4
  %69 = load i32, ptr %68, align 4
  %70 = load ptr, ptr %7, align 8
  %.not.i55 = icmp eq ptr %70, null
  br i1 %.not.i55, label %list_length.exit56, label %71

71:                                               ; preds = %65
  %72 = getelementptr inbounds nuw i8, ptr %70, i64 4
  %73 = load i32, ptr %72, align 4
  br label %list_length.exit56

list_length.exit56:                               ; preds = %65, %71
  %74 = phi i32 [ %73, %71 ], [ 0, %65 ]
  %75 = icmp eq i32 %69, 0
  %76 = select i1 %75, ptr @.str.28, ptr @.str.29
  %77 = tail call i32 (ptr, ...) @errmsg(ptr noundef nonnull @.str.27, ptr noundef nonnull %76, i32 noundef %74, i32 noundef %48) #11
  tail call void @errfinish(ptr noundef nonnull @.str.1, i32 noundef 2115, ptr noundef nonnull @__func__.addRangeTableEntryForTableFunc) #11
  unreachable

78:                                               ; preds = %list_length.exit54
  %79 = zext i1 %4 to i8
  %80 = zext i1 %3 to i8
  %81 = getelementptr inbounds nuw i8, ptr %6, i64 16
  store ptr %42, ptr %81, align 8
  %82 = getelementptr inbounds nuw i8, ptr %6, i64 208
  store i8 %80, ptr %82, align 8
  %83 = getelementptr inbounds nuw i8, ptr %6, i64 209
  store i8 %79, ptr %83, align 1
  %84 = getelementptr inbounds nuw i8, ptr %0, i64 24
  %85 = load ptr, ptr %84, align 8
  %86 = tail call ptr @lappend(ptr noundef %85, ptr noundef nonnull %6) #11
  store ptr %86, ptr %84, align 8
  %.not.i57 = icmp eq ptr %86, null
  br i1 %.not.i57, label %list_length.exit58, label %87

87:                                               ; preds = %78
  %88 = getelementptr inbounds nuw i8, ptr %86, i64 4
  %89 = load i32, ptr %88, align 4
  br label %list_length.exit58

list_length.exit58:                               ; preds = %78, %87
  %90 = phi i32 [ %89, %87 ], [ 0, %78 ]
  %91 = load ptr, ptr %24, align 8
  %92 = load ptr, ptr %27, align 8
  %93 = load ptr, ptr %30, align 8
  %94 = tail call fastcc ptr @buildNSItemFromLists(ptr noundef nonnull %6, i32 noundef %90, ptr noundef %91, ptr noundef %92, ptr noundef %93)
  ret ptr %94
}